; Function Attrs: mustprogress uwtable
define void @_ZN9grpc_core23ClientCompressionFilter4Call23OnClientToServerMessageESt10unique_ptrINS_7MessageENS_5Arena13PooledDeleterEEPS0_(ptr noalias nocapture writeonly sret(%"class.std::unique_ptr") align 8 %agg.result, ptr nocapture noundef nonnull readonly align 4 dereferenceable(16) %this, ptr nocapture noundef %message, ptr nocapture noundef readonly %filter) local_unnamed_addr #3 align 2 personality ptr @__gxx_personality_v0 {
entry:
  %agg.tmp = alloca %"class.std::unique_ptr", align 8
  %compression_engine_ = getelementptr inbounds i8, ptr %filter, i64 24
  %0 = load i8, ptr %message, align 1
  store i8 %0, ptr %agg.tmp, align 8
  %1 = getelementptr inbounds i8, ptr %agg.tmp, i64 8
  %add.ptr.i.i.i.i.i = getelementptr inbounds i8, ptr %message, i64 8
  %2 = load i64, ptr %add.ptr.i.i.i.i.i, align 8
  store i64 %2, ptr %1, align 8
  store ptr null, ptr %add.ptr.i.i.i.i.i, align 8
  %3 = load i32, ptr %this, align 4
  invoke void @_ZNK9grpc_core18ChannelCompression15CompressMessageESt10unique_ptrINS_7MessageENS_5Arena13PooledDeleterEE26grpc_compression_algorithm(ptr sret(%"class.std::unique_ptr") align 8 %agg.result, ptr noundef nonnull align 8 dereferenceable(23) %compression_engine_, ptr noundef nonnull %agg.tmp, i32 noundef %3)
          to label %invoke.cont unwind label %lpad

invoke.cont:                                      ; preds = %entry
  %4 = load ptr, ptr %1, align 8
  %cmp.not.i = icmp eq ptr %4, null
  br i1 %cmp.not.i, label %_ZNSt10unique_ptrIN9grpc_core7MessageENS0_5Arena13PooledDeleterEED2Ev.exit, label %if.then.i

if.then.i:                                        ; preds = %invoke.cont
  %5 = load i8, ptr %agg.tmp, align 8
  %6 = and i8 %5, 1
  %tobool.not.i.i = icmp eq i8 %6, 0
  br i1 %tobool.not.i.i, label %_ZNSt10unique_ptrIN9grpc_core7MessageENS0_5Arena13PooledDeleterEED2Ev.exit, label %delete.notnull.i.i

delete.notnull.i.i:                               ; preds = %if.then.i
  invoke void @grpc_slice_buffer_destroy(ptr noundef nonnull %4)
          to label %_ZN9grpc_core7MessageD2Ev.exit.i.i unwind label %terminate.lpad.i.i.i.i

terminate.lpad.i.i.i.i:                           ; preds = %delete.notnull.i.i
  %7 = landingpad { ptr, i32 }
          catch ptr null
  %8 = extractvalue { ptr, i32 } %7, 0
  tail call void @__clang_call_terminate(ptr %8) #24
  unreachable

_ZN9grpc_core7MessageD2Ev.exit.i.i:               ; preds = %delete.notnull.i.i
  tail call void @_ZdlPv(ptr noundef nonnull %4) #25
  br label %_ZNSt10unique_ptrIN9grpc_core7MessageENS0_5Arena13PooledDeleterEED2Ev.exit

_ZNSt10unique_ptrIN9grpc_core7MessageENS0_5Arena13PooledDeleterEED2Ev.exit: ; preds = %invoke.cont, %if.then.i, %_ZN9grpc_core7MessageD2Ev.exit.i.i
  ret void

lpad:                                             ; preds = %entry
  %9 = landingpad { ptr, i32 }
          cleanup
  call void @_ZNSt10unique_ptrIN9grpc_core7MessageENS0_5Arena13PooledDeleterEED2Ev(ptr noundef nonnull align 8 dereferenceable(16) %agg.tmp) #22
  resume { ptr, i32 } %9
}